target datalayout = "e-m:e-p270:32:32-p271:32:32-p272:64:64-i64:64-i128:128-f80:128-n8:16:32:64-S128"
target triple = "x86_64-unknown-linux-gnu"

%class.btPoint2PointConstraint = type { %class.btTypedConstraint, [3 x %class.btJacobianEntry], %class.btVector3, %class.btVector3, i32, float, float, i8, %struct.btConstraintSetting }
%class.btTypedConstraint = type { ptr, %struct.btTypedObject, i32, %union.anon.0, float, i8, i8, i32, ptr, ptr, float, float, ptr }
%struct.btTypedObject = type { i32 }
%union.anon.0 = type { ptr }
%class.btJacobianEntry = type { %class.btVector3, %class.btVector3, %class.btVector3, %class.btVector3, %class.btVector3, float }
%class.btVector3 = type { [4 x float] }
%struct.btConstraintSetting = type { float, float, float }

; Function Attrs: mustprogress nounwind uwtable
define linkonce_odr dso_local void @_ZN9btVector3C2Ev(ptr noundef nonnull align 4 dereferenceable(16) %this) unnamed_addr #1 comdat align 2 {
entry:
  %this.addr = alloca ptr, align 8
  store ptr %this, ptr %this.addr, align 8
  ret void
}

; Function Attrs: mustprogress nounwind uwtable
define linkonce_odr dso_local void @_ZN17btTypedConstraintD2Ev(ptr noundef nonnull align 8 dereferenceable(72) %this) unnamed_addr #1 comdat align 2 {
entry:
  %this.addr = alloca ptr, align 8
  store ptr %this, ptr %this.addr, align 8
  %this1 = load ptr, ptr %this.addr, align 8
  store ptr getelementptr inbounds ({ [13 x ptr] }, ptr @_ZTV17btTypedConstraint, i32 0, i32 0, i32 2), ptr %this1, align 8
  ret void
}

; Function Attrs: mustprogress nounwind uwtable
define linkonce_odr dso_local void @_ZN19btConstraintSettingC2Ev(ptr noundef nonnull align 4 dereferenceable(12) %this) unnamed_addr #1 comdat align 2 {
entry:
  %this.addr = alloca ptr, align 8
  store ptr %this, ptr %this.addr, align 8
  %this1 = load ptr, ptr %this.addr, align 8
  %m_tau = getelementptr inbounds %struct.btConstraintSetting, ptr %this1, i32 0, i32 0
  store float 0x3FD3333340000000, ptr %m_tau, align 4
  %m_damping = getelementptr inbounds %struct.btConstraintSetting, ptr %this1, i32 0, i32 1
  store float 1.000000e+00, ptr %m_damping, align 4
  %m_impulseClamp = getelementptr inbounds %struct.btConstraintSetting, ptr %this1, i32 0, i32 2
  store float 0.000000e+00, ptr %m_impulseClamp, align 4
  ret void
}

; Function Attrs: mustprogress uwtable
define linkonce_odr dso_local void @_ZN15btJacobianEntryC2Ev(ptr noundef nonnull align 4 dereferenceable(84) %this) unnamed_addr #2 comdat align 2 {
entry:
  %this.addr = alloca ptr, align 8
  store ptr %this, ptr %this.addr, align 8
  %this1 = load ptr, ptr %this.addr, align 8
  %m_linearJointAxis = getelementptr inbounds %class.btJacobianEntry, ptr %this1, i32 0, i32 0
  call void @_ZN9btVector3C2Ev(ptr noundef nonnull align 4 dereferenceable(16) %m_linearJointAxis)
  %m_aJ = getelementptr inbounds %class.btJacobianEntry, ptr %this1, i32 0, i32 1
  call void @_ZN9btVector3C2Ev(ptr noundef nonnull align 4 dereferenceable(16) %m_aJ)
  %m_bJ = getelementptr inbounds %class.btJacobianEntry, ptr %this1, i32 0, i32 2
  call void @_ZN9btVector3C2Ev(ptr noundef nonnull align 4 dereferenceable(16) %m_bJ)
  %m_0MinvJt = getelementptr inbounds %class.btJacobianEntry, ptr %this1, i32 0, i32 3
  call void @_ZN9btVector3C2Ev(ptr noundef nonnull align 4 dereferenceable(16) %m_0MinvJt)
  %m_1MinvJt = getelementptr inbounds %class.btJacobianEntry, ptr %this1, i32 0, i32 4
  call void @_ZN9btVector3C2Ev(ptr noundef nonnull align 4 dereferenceable(16) %m_1MinvJt)
  ret void
}

; Function Attrs: mustprogress uwtable
define dso_local void @_ZN23btPoint2PointConstraintC2ER11btRigidBodyS1_RK9btVector3S4_(ptr noundef nonnull align 8 dereferenceable(384) %this, ptr noundef nonnull align 8 dereferenceable(744) %rbA, ptr noundef nonnull align 8 dereferenceable(744) %rbB, ptr noundef nonnull align 4 dereferenceable(16) %pivotInA, ptr noundef nonnull align 4 dereferenceable(16) %pivotInB) unnamed_addr #2 align 2 personality ptr @__gxx_personality_v0 {
entry:
  %this.addr = alloca ptr, align 8
  %rbA.addr = alloca ptr, align 8
  %rbB.addr = alloca ptr, align 8
  %pivotInA.addr = alloca ptr, align 8
  %pivotInB.addr = alloca ptr, align 8
  %exn.slot = alloca ptr, align 8
  %ehselector.slot = alloca i32, align 4
  store ptr %this, ptr %this.addr, align 8
  store ptr %rbA, ptr %rbA.addr, align 8
  store ptr %rbB, ptr %rbB.addr, align 8
  store ptr %pivotInA, ptr %pivotInA.addr, align 8
  store ptr %pivotInB, ptr %pivotInB.addr, align 8
  %this1 = load ptr, ptr %this.addr, align 8
  %0 = load ptr, ptr %rbA.addr, align 8
  %1 = load ptr, ptr %rbB.addr, align 8
  call void @_ZN17btTypedConstraintC2E21btTypedConstraintTypeR11btRigidBodyS2_(ptr noundef nonnull align 8 dereferenceable(72) %this1, i32 noundef 3, ptr noundef nonnull align 8 dereferenceable(744) %0, ptr noundef nonnull align 8 dereferenceable(744) %1)
  store ptr getelementptr inbounds ({ [14 x ptr] }, ptr @_ZTV23btPoint2PointConstraint, i32 0, i32 0, i32 2), ptr %this1, align 8
  %m_jac = getelementptr inbounds %class.btPoint2PointConstraint, ptr %this1, i32 0, i32 1
  %array.begin = getelementptr inbounds [3 x %class.btJacobianEntry], ptr %m_jac, i32 0, i32 0
  %arrayctor.end = getelementptr inbounds %class.btJacobianEntry, ptr %array.begin, i64 3
  br label %arrayctor.loop

arrayctor.loop:                                   ; preds = %invoke.cont, %entry
  %arrayctor.cur = phi ptr [ %array.begin, %entry ], [ %arrayctor.next, %invoke.cont ]
  invoke void @_ZN15btJacobianEntryC2Ev(ptr noundef nonnull align 4 dereferenceable(84) %arrayctor.cur)
          to label %invoke.cont unwind label %lpad

invoke.cont:                                      ; preds = %arrayctor.loop
  %arrayctor.next = getelementptr inbounds %class.btJacobianEntry, ptr %arrayctor.cur, i64 1
  %arrayctor.done = icmp eq ptr %arrayctor.next, %arrayctor.end
  br i1 %arrayctor.done, label %arrayctor.cont, label %arrayctor.loop

arrayctor.cont:                                   ; preds = %invoke.cont
  %m_pivotInA = getelementptr inbounds %class.btPoint2PointConstraint, ptr %this1, i32 0, i32 2
  %2 = load ptr, ptr %pivotInA.addr, align 8
  call void @llvm.memcpy.p0.p0.i64(ptr align 4 %m_pivotInA, ptr align 4 %2, i64 16, i1 false)
  %m_pivotInB = getelementptr inbounds %class.btPoint2PointConstraint, ptr %this1, i32 0, i32 3
  %3 = load ptr, ptr %pivotInB.addr, align 8
  call void @llvm.memcpy.p0.p0.i64(ptr align 4 %m_pivotInB, ptr align 4 %3, i64 16, i1 false)
  %m_flags = getelementptr inbounds %class.btPoint2PointConstraint, ptr %this1, i32 0, i32 4
  store i32 0, ptr %m_flags, align 4
  %m_useSolveConstraintObsolete = getelementptr inbounds %class.btPoint2PointConstraint, ptr %this1, i32 0, i32 7
  store i8 0, ptr %m_useSolveConstraintObsolete, align 8
  %m_setting = getelementptr inbounds %class.btPoint2PointConstraint, ptr %this1, i32 0, i32 8
  invoke void @_ZN19btConstraintSettingC2Ev(ptr noundef nonnull align 4 dereferenceable(12) %m_setting)
          to label %invoke.cont2 unwind label %lpad

invoke.cont2:                                     ; preds = %arrayctor.cont
  ret void

lpad:                                             ; preds = %arrayctor.cont, %arrayctor.loop
  %4 = landingpad { ptr, i32 }
          cleanup
  %5 = extractvalue { ptr, i32 } %4, 0
  store ptr %5, ptr %exn.slot, align 8
  %6 = extractvalue { ptr, i32 } %4, 1
  store i32 %6, ptr %ehselector.slot, align 4
  call void @_ZN17btTypedConstraintD2Ev(ptr noundef nonnull align 8 dereferenceable(72) %this1) #9
  br label %eh.resume

eh.resume:                                        ; preds = %lpad
  %exn = load ptr, ptr %exn.slot, align 8
  %sel = load i32, ptr %ehselector.slot, align 4
  %lpad.val = insertvalue { ptr, i32 } poison, ptr %exn, 0
  %lpad.val3 = insertvalue { ptr, i32 } %lpad.val, i32 %sel, 1
  resume { ptr, i32 } %lpad.val3
}