; Function Attrs: mustprogress uwtable
define dso_local void @_ZN23btPoint2PointConstraintC2ER11btRigidBodyS1_RK9btVector3S4_(ptr noundef nonnull align 8 dereferenceable(384) %this, ptr noundef nonnull align 8 dereferenceable(744) %rbA, ptr noundef nonnull align 8 dereferenceable(744) %rbB, ptr nocapture noundef nonnull readonly align 4 dereferenceable(16) %pivotInA, ptr nocapture noundef nonnull readonly align 4 dereferenceable(16) %pivotInB) unnamed_addr #1 align 2 personality ptr @__gxx_personality_v0 {
entry:
  tail call void @_ZN17btTypedConstraintC2E21btTypedConstraintTypeR11btRigidBodyS2_(ptr noundef nonnull align 8 dereferenceable(72) %this, i32 noundef 3, ptr noundef nonnull align 8 dereferenceable(744) %rbA, ptr noundef nonnull align 8 dereferenceable(744) %rbB)
  store ptr getelementptr inbounds ({ [14 x ptr] }, ptr @_ZTV23btPoint2PointConstraint, i64 0, i32 0, i64 2), ptr %this, align 8
  %m_pivotInA = getelementptr inbounds i8, ptr %this, i64 324
  tail call void @llvm.memcpy.p0.p0.i64(ptr noundef nonnull align 4 dereferenceable(16) %m_pivotInA, ptr noundef nonnull align 4 dereferenceable(16) %pivotInA, i64 16, i1 false)
  %m_pivotInB = getelementptr inbounds i8, ptr %this, i64 340
  tail call void @llvm.memcpy.p0.p0.i64(ptr noundef nonnull align 4 dereferenceable(16) %m_pivotInB, ptr noundef nonnull align 4 dereferenceable(16) %pivotInB, i64 16, i1 false)
  %m_flags = getelementptr inbounds i8, ptr %this, i64 356
  store i32 0, ptr %m_flags, align 4
  %m_useSolveConstraintObsolete = getelementptr inbounds i8, ptr %this, i64 368
  store i8 0, ptr %m_useSolveConstraintObsolete, align 8
  %m_setting = getelementptr inbounds i8, ptr %this, i64 372
  store <2 x float> <float 0x3FD3333340000000, float 1.000000e+00>, ptr %m_setting, align 4
  %m_impulseClamp.i = getelementptr inbounds i8, ptr %this, i64 380
  store float 0.000000e+00, ptr %m_impulseClamp.i, align 4
  ret void
}